target datalayout = "e-m:e-p270:32:32-p271:32:32-p272:64:64-i64:64-i128:128-f80:128-n8:16:32:64-S128"
target triple = "x86_64-pc-linux-gnu"

; Function Attrs: nounwind uwtable
define void @Abc_QuickSort3(ptr noundef %0, i32 noundef %1, i32 noundef %2) #0 {
  %4 = alloca ptr, align 8
  %5 = alloca i32, align 4
  %6 = alloca i32, align 4
  %7 = alloca i32, align 4
  %8 = alloca i32, align 4
  store ptr %0, ptr %4, align 8
  store i32 %1, ptr %5, align 4
  store i32 %2, ptr %6, align 4
  store i32 1, ptr %8, align 4
  %9 = load i32, ptr %6, align 4
  %10 = icmp ne i32 %9, 0
  br i1 %10, label %11, label %28

11:                                               ; preds = %3
  %12 = load ptr, ptr %4, align 8
  %13 = load i32, ptr %5, align 4
  %14 = sub nsw i32 %13, 1
  call void @Abc_QuickSort2Dec_rec(ptr noundef %12, i32 noundef 0, i32 noundef %14)
  %15 = load i32, ptr %8, align 4
  %16 = icmp ne i32 %15, 0
  br i1 %16, label %17, label %27

17:                                               ; preds = %11
  store i32 1, ptr %7, align 4
  br label %18

18:                                               ; preds = %23, %17
  %19 = load i32, ptr %7, align 4
  %20 = load i32, ptr %5, align 4
  %21 = icmp slt i32 %19, %20
  br i1 %21, label %22, label %26

22:                                               ; preds = %18
  br label %23

23:                                               ; preds = %22
  %24 = load i32, ptr %7, align 4
  %25 = add nsw i32 %24, 1
  store i32 %25, ptr %7, align 4
  br label %18, !llvm.loop !51

26:                                               ; preds = %18
  br label %27

27:                                               ; preds = %26, %11
  br label %45

28:                                               ; preds = %3
  %29 = load ptr, ptr %4, align 8
  %30 = load i32, ptr %5, align 4
  %31 = sub nsw i32 %30, 1
  call void @Abc_QuickSort2Inc_rec(ptr noundef %29, i32 noundef 0, i32 noundef %31)
  %32 = load i32, ptr %8, align 4
  %33 = icmp ne i32 %32, 0
  br i1 %33, label %34, label %44

34:                                               ; preds = %28
  store i32 1, ptr %7, align 4
  br label %35

35:                                               ; preds = %40, %34
  %36 = load i32, ptr %7, align 4
  %37 = load i32, ptr %5, align 4
  %38 = icmp slt i32 %36, %37
  br i1 %38, label %39, label %43

39:                                               ; preds = %35
  br label %40

40:                                               ; preds = %39
  %41 = load i32, ptr %7, align 4
  %42 = add nsw i32 %41, 1
  store i32 %42, ptr %7, align 4
  br label %35, !llvm.loop !52

43:                                               ; preds = %35
  br label %44

44:                                               ; preds = %43, %28
  br label %45

45:                                               ; preds = %44, %27
  ret void
}

; Function Attrs: nounwind uwtable
define void @Abc_QuickSortCostData(ptr noundef %0, i32 noundef %1, i32 noundef %2, ptr noundef %3, ptr noundef %4) #0 {
  %6 = alloca ptr, align 8
  %7 = alloca i32, align 4
  %8 = alloca i32, align 4
  %9 = alloca ptr, align 8
  %10 = alloca ptr, align 8
  %11 = alloca i32, align 4
  store ptr %0, ptr %6, align 8
  store i32 %1, ptr %7, align 4
  store i32 %2, ptr %8, align 4
  store ptr %3, ptr %9, align 8
  store ptr %4, ptr %10, align 8
  store i32 0, ptr %11, align 4
  br label %12

12:                                               ; preds = %31, %5
  %13 = load i32, ptr %11, align 4
  %14 = load i32, ptr %7, align 4
  %15 = icmp slt i32 %13, %14
  br i1 %15, label %16, label %34

16:                                               ; preds = %12
  %17 = load i32, ptr %11, align 4
  %18 = sext i32 %17 to i64
  %19 = shl i64 %18, 32
  %20 = load ptr, ptr %6, align 8
  %21 = load i32, ptr %11, align 4
  %22 = sext i32 %21 to i64
  %23 = getelementptr inbounds i32, ptr %20, i64 %22
  %24 = load i32, ptr %23, align 4
  %25 = sext i32 %24 to i64
  %26 = or i64 %19, %25
  %27 = load ptr, ptr %9, align 8
  %28 = load i32, ptr %11, align 4
  %29 = sext i32 %28 to i64
  %30 = getelementptr inbounds i64, ptr %27, i64 %29
  store i64 %26, ptr %30, align 8
  br label %31

31:                                               ; preds = %16
  %32 = load i32, ptr %11, align 4
  %33 = add nsw i32 %32, 1
  store i32 %33, ptr %11, align 4
  br label %12, !llvm.loop !53

34:                                               ; preds = %12
  %35 = load ptr, ptr %9, align 8
  %36 = load i32, ptr %7, align 4
  %37 = load i32, ptr %8, align 4
  call void @Abc_QuickSort3(ptr noundef %35, i32 noundef %36, i32 noundef %37)
  store i32 0, ptr %11, align 4
  br label %38

38:                                               ; preds = %54, %34
  %39 = load i32, ptr %11, align 4
  %40 = load i32, ptr %7, align 4
  %41 = icmp slt i32 %39, %40
  br i1 %41, label %42, label %57

42:                                               ; preds = %38
  %43 = load ptr, ptr %9, align 8
  %44 = load i32, ptr %11, align 4
  %45 = sext i32 %44 to i64
  %46 = getelementptr inbounds i64, ptr %43, i64 %45
  %47 = load i64, ptr %46, align 8
  %48 = lshr i64 %47, 32
  %49 = trunc i64 %48 to i32
  %50 = load ptr, ptr %10, align 8
  %51 = load i32, ptr %11, align 4
  %52 = sext i32 %51 to i64
  %53 = getelementptr inbounds i32, ptr %50, i64 %52
  store i32 %49, ptr %53, align 4
  br label %54

54:                                               ; preds = %42
  %55 = load i32, ptr %11, align 4
  %56 = add nsw i32 %55, 1
  store i32 %56, ptr %11, align 4
  br label %38, !llvm.loop !54

57:                                               ; preds = %38
  ret void
}

; Function Attrs: nounwind uwtable
define ptr @Abc_QuickSortCost(ptr noundef %0, i32 noundef %1, i32 noundef %2) #0 {
  %4 = alloca ptr, align 8
  %5 = alloca i32, align 4
  %6 = alloca i32, align 4
  %7 = alloca ptr, align 8
  %8 = alloca ptr, align 8
  store ptr %0, ptr %4, align 8
  store i32 %1, ptr %5, align 4
  store i32 %2, ptr %6, align 4
  %9 = load i32, ptr %5, align 4
  %10 = sext i32 %9 to i64
  %11 = mul i64 8, %10
  %12 = call noalias ptr @malloc(i64 noundef %11) #8
  store ptr %12, ptr %7, align 8
  %13 = load i32, ptr %5, align 4
  %14 = sext i32 %13 to i64
  %15 = mul i64 4, %14
  %16 = call noalias ptr @malloc(i64 noundef %15) #8
  store ptr %16, ptr %8, align 8
  %17 = load ptr, ptr %4, align 8
  %18 = load i32, ptr %5, align 4
  %19 = load i32, ptr %6, align 4
  %20 = load ptr, ptr %7, align 8
  %21 = load ptr, ptr %8, align 8
  call void @Abc_QuickSortCostData(ptr noundef %17, i32 noundef %18, i32 noundef %19, ptr noundef %20, ptr noundef %21)
  %22 = load ptr, ptr %7, align 8
  %23 = icmp ne ptr %22, null
  br i1 %23, label %24, label %26

24:                                               ; preds = %3
  %25 = load ptr, ptr %7, align 8
  call void @free(ptr noundef %25) #9
  store ptr null, ptr %7, align 8
  br label %27

26:                                               ; preds = %3
  br label %27

27:                                               ; preds = %26, %24
  %28 = load ptr, ptr %8, align 8
  ret ptr %28
}