; Function Attrs: nounwind memory(readwrite, argmem: read) uwtable
define noalias noundef ptr @Abc_QuickSortCost(ptr noundef readonly captures(none) %0, i32 noundef %1, i32 noundef %2) local_unnamed_addr #6 {
  %4 = sext i32 %1 to i64
  %5 = shl nsw i64 %4, 3
  %6 = tail call noalias ptr @malloc(i64 noundef %5) #19
  %7 = shl nsw i64 %4, 2
  %8 = tail call noalias ptr @malloc(i64 noundef %7) #19
  %9 = icmp sgt i32 %1, 0
  br i1 %9, label %.lr.ph.preheader.i, label %._crit_edge.i

.lr.ph.preheader.i:                               ; preds = %3
  %wide.trip.count.i = zext nneg i32 %1 to i64
  br label %.lr.ph.i

.lr.ph.i:                                         ; preds = %.lr.ph.i, %.lr.ph.preheader.i
  %indvars.iv.i = phi i64 [ 0, %.lr.ph.preheader.i ], [ %indvars.iv.next.i, %.lr.ph.i ]
  %10 = shl nuw nsw i64 %indvars.iv.i, 32
  %11 = getelementptr inbounds nuw i32, ptr %0, i64 %indvars.iv.i
  %12 = load i32, ptr %11, align 4
  %13 = sext i32 %12 to i64
  %14 = or i64 %10, %13
  %15 = getelementptr inbounds nuw i64, ptr %6, i64 %indvars.iv.i
  store i64 %14, ptr %15, align 8
  %indvars.iv.next.i = add nuw nsw i64 %indvars.iv.i, 1
  %exitcond.not.i = icmp eq i64 %indvars.iv.next.i, %wide.trip.count.i
  br i1 %exitcond.not.i, label %._crit_edge.i, label %.lr.ph.i, !llvm.loop !44

._crit_edge.i:                                    ; preds = %.lr.ph.i, %3
  %.not.i.i = icmp eq i32 %2, 0
  %16 = add nsw i32 %1, -1
  br i1 %.not.i.i, label %.loopexit.loopexit.i.i, label %.loopexit.loopexit13.i.i

.loopexit.loopexit13.i.i:                         ; preds = %._crit_edge.i
  tail call void @Abc_QuickSort2Dec_rec(ptr noundef %6, i32 noundef 0, i32 noundef %16)
  br label %Abc_QuickSort3.exit.i

.loopexit.loopexit.i.i:                           ; preds = %._crit_edge.i
  tail call void @Abc_QuickSort2Inc_rec(ptr noundef %6, i32 noundef 0, i32 noundef %16)
  br label %Abc_QuickSort3.exit.i

Abc_QuickSort3.exit.i:                            ; preds = %.loopexit.loopexit.i.i, %.loopexit.loopexit13.i.i
  br i1 %9, label %.lr.ph20.preheader.i, label %Abc_QuickSortCostData.exit

.lr.ph20.preheader.i:                             ; preds = %Abc_QuickSort3.exit.i
  %wide.trip.count26.i = zext nneg i32 %1 to i64
  br label %.lr.ph20.i

.lr.ph20.i:                                       ; preds = %.lr.ph20.i, %.lr.ph20.preheader.i
  %indvars.iv23.i = phi i64 [ 0, %.lr.ph20.preheader.i ], [ %indvars.iv.next24.i, %.lr.ph20.i ]
  %17 = getelementptr inbounds nuw i64, ptr %6, i64 %indvars.iv23.i
  %18 = load i64, ptr %17, align 8
  %19 = lshr i64 %18, 32
  %20 = trunc nuw i64 %19 to i32
  %21 = getelementptr inbounds nuw i32, ptr %8, i64 %indvars.iv23.i
  store i32 %20, ptr %21, align 4
  %indvars.iv.next24.i = add nuw nsw i64 %indvars.iv23.i, 1
  %exitcond27.not.i = icmp eq i64 %indvars.iv.next24.i, %wide.trip.count26.i
  br i1 %exitcond27.not.i, label %Abc_QuickSortCostData.exit.thread, label %.lr.ph20.i, !llvm.loop !45

Abc_QuickSortCostData.exit:                       ; preds = %Abc_QuickSort3.exit.i
  %.not = icmp eq ptr %6, null
  br i1 %.not, label %22, label %Abc_QuickSortCostData.exit.thread

Abc_QuickSortCostData.exit.thread:                ; preds = %.lr.ph20.i, %Abc_QuickSortCostData.exit
  tail call void @free(ptr noundef nonnull %6) #20
  br label %22

22:                                               ; preds = %Abc_QuickSortCostData.exit, %Abc_QuickSortCostData.exit.thread
  ret ptr %8
}